; Function Attrs: nounwind uwtable
define noalias noundef nonnull ptr @l_Lean_Compiler_LCNF_PullFunDecls_ToPull_attach(ptr noundef readonly captures(none) %0, ptr noundef %1) local_unnamed_addr #0 {
  %3 = getelementptr inbounds nuw i8, ptr %0, i64 8
  %4 = getelementptr inbounds nuw i8, ptr %0, i64 24
  %5 = load i8, ptr %4, align 1, !tbaa !16
  %6 = icmp eq i8 %5, 0
  %7 = load ptr, ptr %3, align 8, !tbaa !9
  %8 = ptrtoint ptr %7 to i64
  %9 = and i64 %8, 1
  %.not21 = icmp eq i64 %9, 0
  br i1 %6, label %10, label %20

10:                                               ; preds = %2
  br i1 %.not21, label %11, label %lean_inc.exit16

11:                                               ; preds = %10
  %.val.i = load i32, ptr %7, align 4, !tbaa !4
  %12 = icmp sgt i32 %.val.i, 0
  br i1 %12, label %13, label %15, !prof !11

13:                                               ; preds = %11
  %14 = add nuw i32 %.val.i, 1
  store i32 %14, ptr %7, align 4, !tbaa !4
  br label %lean_inc.exit16

15:                                               ; preds = %11
  %.not.i = icmp eq i32 %.val.i, 0
  br i1 %.not.i, label %lean_inc.exit16, label %16

16:                                               ; preds = %15
  tail call void @lean_inc_ref_cold(ptr noundef nonnull %7) #5
  br label %lean_inc.exit16

lean_inc.exit16:                                  ; preds = %16, %15, %13, %10
  tail call void @lean_inc_heartbeat() #5
  %17 = tail call noalias ptr @mi_malloc_small(i64 noundef 24) #5
  %18 = icmp eq ptr %17, null
  br i1 %18, label %19, label %lean_alloc_ctor.exit

19:                                               ; preds = %lean_inc.exit16
  tail call void @lean_internal_panic_out_of_memory() #6
  unreachable

20:                                               ; preds = %2
  br i1 %.not21, label %21, label %lean_inc.exit

21:                                               ; preds = %20
  %.val.i17 = load i32, ptr %7, align 4, !tbaa !4
  %22 = icmp sgt i32 %.val.i17, 0
  br i1 %22, label %23, label %25, !prof !11

23:                                               ; preds = %21
  %24 = add nuw i32 %.val.i17, 1
  store i32 %24, ptr %7, align 4, !tbaa !4
  br label %lean_inc.exit

25:                                               ; preds = %21
  %.not.i18 = icmp eq i32 %.val.i17, 0
  br i1 %.not.i18, label %lean_inc.exit, label %26

26:                                               ; preds = %25
  tail call void @lean_inc_ref_cold(ptr noundef nonnull %7) #5
  br label %lean_inc.exit

lean_inc.exit:                                    ; preds = %26, %25, %23, %20
  tail call void @lean_inc_heartbeat() #5
  %27 = tail call noalias ptr @mi_malloc_small(i64 noundef 24) #5
  %28 = icmp eq ptr %27, null
  br i1 %28, label %29, label %lean_alloc_ctor.exit

29:                                               ; preds = %lean_inc.exit
  tail call void @lean_internal_panic_out_of_memory() #6
  unreachable

lean_alloc_ctor.exit:                             ; preds = %lean_inc.exit, %lean_inc.exit16
  %.sink26 = phi ptr [ %17, %lean_inc.exit16 ], [ %27, %lean_inc.exit ]
  %.sink = phi i32 [ 33685528, %lean_inc.exit16 ], [ 16908312, %lean_inc.exit ]
  %30 = getelementptr inbounds nuw i8, ptr %.sink26, i64 4
  store i32 1, ptr %.sink26, align 4, !tbaa !4
  store i32 %.sink, ptr %30, align 4
  %31 = getelementptr inbounds nuw i8, ptr %.sink26, i64 8
  store ptr %7, ptr %31, align 8, !tbaa !9
  %32 = getelementptr inbounds nuw i8, ptr %.sink26, i64 16
  store ptr %1, ptr %32, align 8, !tbaa !9
  ret ptr %.sink26
}